; Function Attrs: mustprogress uwtable
define ptr @lean_expr_instantiate1(ptr noundef %0, ptr noundef %1) local_unnamed_addr #0 personality ptr @__gxx_personality_v0 {
  %3 = alloca ptr, align 8
  %4 = alloca ptr, align 8
  %5 = alloca %"class.lean::expr", align 8
  store ptr %0, ptr %3, align 8, !tbaa !23
  store ptr %1, ptr %4, align 8, !tbaa !23
  %6 = call noundef i32 @_ZN4lean20get_loose_bvar_rangeERKNS_4exprE(ptr noundef nonnull align 8 dereferenceable(8) %3)
  %.not = icmp eq i32 %6, 0
  br i1 %.not, label %7, label %_ZN4lean10object_refD2Ev.exit

7:                                                ; preds = %2
  %8 = load ptr, ptr %3, align 8, !tbaa !23
  %9 = ptrtoint ptr %8 to i64
  %10 = and i64 %9, 1
  %.not5 = icmp eq i64 %10, 0
  br i1 %.not5, label %11, label %_ZL8lean_incP11lean_object.exit

11:                                               ; preds = %7
  %.val.i = load i32, ptr %8, align 4, !tbaa !8
  %12 = icmp sgt i32 %.val.i, 0
  br i1 %12, label %13, label %15, !prof !11

13:                                               ; preds = %11
  %14 = add nuw nsw i32 %.val.i, 1
  store i32 %14, ptr %8, align 4, !tbaa !8
  br label %_ZL8lean_incP11lean_object.exit

15:                                               ; preds = %11
  %.not.i = icmp eq i32 %.val.i, 0
  br i1 %.not.i, label %_ZL8lean_incP11lean_object.exit, label %16

16:                                               ; preds = %15
  call void @lean_inc_ref_cold(ptr noundef nonnull %8)
  %.pre = load ptr, ptr %3, align 8, !tbaa !23
  br label %_ZL8lean_incP11lean_object.exit

_ZN4lean10object_refD2Ev.exit:                    ; preds = %2
  call void @llvm.lifetime.start.p0(i64 8, ptr nonnull %5) #12
  call void @_ZN4lean11instantiateERKNS_4exprEjjPS1_(ptr dead_on_unwind nonnull writable sret(%"class.lean::expr") align 8 %5, ptr noundef nonnull align 8 dereferenceable(8) %3, i32 noundef 0, i32 noundef 1, ptr noundef nonnull %4)
  %17 = load ptr, ptr %5, align 8, !tbaa !3
  call void @llvm.lifetime.end.p0(i64 8, ptr nonnull %5) #12
  br label %_ZL8lean_incP11lean_object.exit

_ZL8lean_incP11lean_object.exit:                  ; preds = %7, %13, %15, %16, %_ZN4lean10object_refD2Ev.exit
  %.0 = phi ptr [ %17, %_ZN4lean10object_refD2Ev.exit ], [ %.pre, %16 ], [ %8, %15 ], [ %8, %13 ], [ %8, %7 ]
  ret ptr %.0
}